target datalayout = "e-m:e-p270:32:32-p271:32:32-p272:64:64-i64:64-i128:128-f80:128-n8:16:32:64-S128"
target triple = "x86_64-pc-linux-gnu"

@.str = private unnamed_addr constant [33 x i8] c"\0A2D elliptic PDE on unit square\0A\00", align 1
@.str.1 = private unnamed_addr constant [48 x i8] c"   d^2 u / dx^2 + d^2 u / dy^2 = u^3 - u + 2.0\0A\00", align 1
@.str.2 = private unnamed_addr constant [47 x i8] c" + homogeneous Dirichlet boundary conditions\0A\0A\00", align 1
@.str.3 = private unnamed_addr constant [58 x i8] c"Solution method: Modified Newton with band linear solver\0A\00", align 1
@.str.4 = private unnamed_addr constant [34 x i8] c"Problem size: %2ld x %2ld = %4ld\0A\00", align 1
@.str.5 = private unnamed_addr constant [18 x i8] c"SUNContext_Create\00", align 1
@.str.6 = private unnamed_addr constant [14 x i8] c"N_VNew_Serial\00", align 1
@.str.7 = private unnamed_addr constant [10 x i8] c"KINCreate\00", align 1
@.str.8 = private unnamed_addr constant [8 x i8] c"KINInit\00", align 1
@.str.9 = private unnamed_addr constant [18 x i8] c"KINSetFuncNormTol\00", align 1
@.str.10 = private unnamed_addr constant [14 x i8] c"SUNBandMatrix\00", align 1
@.str.11 = private unnamed_addr constant [15 x i8] c"SUNLinSol_Band\00", align 1
@.str.12 = private unnamed_addr constant [19 x i8] c"KINSetLinearSolver\00", align 1
@.str.13 = private unnamed_addr constant [20 x i8] c"KINSetMaxSetupCalls\00", align 1
@.str.14 = private unnamed_addr constant [23 x i8] c"KINSetMaxSubSetupCalls\00", align 1
@.str.15 = private unnamed_addr constant [7 x i8] c"KINSol\00", align 1
@.str.16 = private unnamed_addr constant [15 x i8] c"KINGetfuncNorm\00", align 1
@.str.17 = private unnamed_addr constant [35 x i8] c"\0AComputed solution (||F|| = %g):\0A\0A\00", align 1
@stderr = external global ptr, align 8
@.str.37 = private unnamed_addr constant [55 x i8] c"\0ASUNDIALS_ERROR: %s() failed - returned NULL pointer\0A\0A\00", align 1
@.str.38 = private unnamed_addr constant [48 x i8] c"\0ASUNDIALS_ERROR: %s() failed with retval = %d\0A\0A\00", align 1
@.str.39 = private unnamed_addr constant [53 x i8] c"\0AMEMORY_ERROR: %s() failed - returned NULL pointer\0A\0A\00", align 1

; Function Attrs: nounwind uwtable
define internal i32 @check_retval(ptr noundef %0, ptr noundef %1, i32 noundef %2) #0 {
  %4 = alloca i32, align 4
  %5 = alloca ptr, align 8
  %6 = alloca ptr, align 8
  %7 = alloca i32, align 4
  %8 = alloca ptr, align 8
  %9 = alloca i32, align 4
  store ptr %0, ptr %5, align 8, !tbaa !9
  store ptr %1, ptr %6, align 8, !tbaa !20
  store i32 %2, ptr %7, align 4, !tbaa !14
  call void @llvm.lifetime.start.p0(i64 8, ptr %8) #5
  %10 = load i32, ptr %7, align 4, !tbaa !14
  %11 = icmp eq i32 %10, 0
  br i1 %11, label %12, label %19

12:                                               ; preds = %3
  %13 = load ptr, ptr %5, align 8, !tbaa !9
  %14 = icmp eq ptr %13, null
  br i1 %14, label %15, label %19

15:                                               ; preds = %12
  %16 = load ptr, ptr @stderr, align 8, !tbaa !22
  %17 = load ptr, ptr %6, align 8, !tbaa !20
  %18 = call i32 (ptr, ptr, ...) @fprintf(ptr noundef %16, ptr noundef @.str.37, ptr noundef %17) #5
  store i32 1, ptr %4, align 4
  store i32 1, ptr %9, align 4
  br label %47

19:                                               ; preds = %12, %3
  %20 = load i32, ptr %7, align 4, !tbaa !14
  %21 = icmp eq i32 %20, 1
  br i1 %21, label %22, label %34

22:                                               ; preds = %19
  %23 = load ptr, ptr %5, align 8, !tbaa !9
  store ptr %23, ptr %8, align 8, !tbaa !24
  %24 = load ptr, ptr %8, align 8, !tbaa !24
  %25 = load i32, ptr %24, align 4, !tbaa !14
  %26 = icmp slt i32 %25, 0
  br i1 %26, label %27, label %33

27:                                               ; preds = %22
  %28 = load ptr, ptr @stderr, align 8, !tbaa !22
  %29 = load ptr, ptr %6, align 8, !tbaa !20
  %30 = load ptr, ptr %8, align 8, !tbaa !24
  %31 = load i32, ptr %30, align 4, !tbaa !14
  %32 = call i32 (ptr, ptr, ...) @fprintf(ptr noundef %28, ptr noundef @.str.38, ptr noundef %29, i32 noundef %31) #5
  store i32 1, ptr %4, align 4
  store i32 1, ptr %9, align 4
  br label %47

33:                                               ; preds = %22
  br label %45

34:                                               ; preds = %19
  %35 = load i32, ptr %7, align 4, !tbaa !14
  %36 = icmp eq i32 %35, 2
  br i1 %36, label %37, label %44

37:                                               ; preds = %34
  %38 = load ptr, ptr %5, align 8, !tbaa !9
  %39 = icmp eq ptr %38, null
  br i1 %39, label %40, label %44

40:                                               ; preds = %37
  %41 = load ptr, ptr @stderr, align 8, !tbaa !22
  %42 = load ptr, ptr %6, align 8, !tbaa !20
  %43 = call i32 (ptr, ptr, ...) @fprintf(ptr noundef %41, ptr noundef @.str.39, ptr noundef %42) #5
  store i32 1, ptr %4, align 4
  store i32 1, ptr %9, align 4
  br label %47

44:                                               ; preds = %37, %34
  br label %45

45:                                               ; preds = %44, %33
  br label %46

46:                                               ; preds = %45
  store i32 0, ptr %4, align 4
  store i32 1, ptr %9, align 4
  br label %47

47:                                               ; preds = %46, %40, %27, %15
  call void @llvm.lifetime.end.p0(i64 8, ptr %8) #5
  %48 = load i32, ptr %4, align 4
  ret i32 %48
}

; Function Attrs: nounwind uwtable
define dso_local i32 @main() #0 {
  %1 = alloca i32, align 4
  %2 = alloca ptr, align 8
  %3 = alloca double, align 8
  %4 = alloca double, align 8
  %5 = alloca ptr, align 8
  %6 = alloca ptr, align 8
  %7 = alloca i32, align 4
  %8 = alloca i32, align 4
  %9 = alloca i32, align 4
  %10 = alloca ptr, align 8
  %11 = alloca ptr, align 8
  %12 = alloca ptr, align 8
  %13 = alloca i32, align 4
  store i32 0, ptr %1, align 4
  call void @llvm.lifetime.start.p0(i64 8, ptr %2) #5
  call void @llvm.lifetime.start.p0(i64 8, ptr %3) #5
  call void @llvm.lifetime.start.p0(i64 8, ptr %4) #5
  call void @llvm.lifetime.start.p0(i64 8, ptr %5) #5
  call void @llvm.lifetime.start.p0(i64 8, ptr %6) #5
  call void @llvm.lifetime.start.p0(i64 4, ptr %7) #5
  call void @llvm.lifetime.start.p0(i64 4, ptr %8) #5
  call void @llvm.lifetime.start.p0(i64 4, ptr %9) #5
  call void @llvm.lifetime.start.p0(i64 8, ptr %10) #5
  call void @llvm.lifetime.start.p0(i64 8, ptr %11) #5
  call void @llvm.lifetime.start.p0(i64 8, ptr %12) #5
  store ptr null, ptr %6, align 8, !tbaa !4
  store ptr null, ptr %5, align 8, !tbaa !4
  store ptr null, ptr %10, align 8, !tbaa !9
  store ptr null, ptr %11, align 8, !tbaa !10
  store ptr null, ptr %12, align 8, !tbaa !12
  %14 = call i32 (ptr, ...) @printf(ptr noundef @.str)
  %15 = call i32 (ptr, ...) @printf(ptr noundef @.str.1)
  %16 = call i32 (ptr, ...) @printf(ptr noundef @.str.2)
  %17 = call i32 (ptr, ...) @printf(ptr noundef @.str.3)
  %18 = call i32 (ptr, ...) @printf(ptr noundef @.str.4, i64 noundef 31, i64 noundef 31, i64 noundef 961)
  %19 = call i32 @SUNContext_Create(i32 noundef 0, ptr noundef %2)
  store i32 %19, ptr %9, align 4, !tbaa !14
  %20 = call i32 @check_retval(ptr noundef %9, ptr noundef @.str.5, i32 noundef 1)
  %21 = icmp ne i32 %20, 0
  br i1 %21, label %22, label %23

22:                                               ; preds = %0
  store i32 1, ptr %1, align 4
  store i32 1, ptr %13, align 4
  br label %126

23:                                               ; preds = %0
  %24 = load ptr, ptr %2, align 8, !tbaa !16
  %25 = call ptr @N_VNew_Serial(i64 noundef 961, ptr noundef %24)
  store ptr %25, ptr %5, align 8, !tbaa !4
  %26 = load ptr, ptr %5, align 8, !tbaa !4
  %27 = call i32 @check_retval(ptr noundef %26, ptr noundef @.str.6, i32 noundef 0)
  %28 = icmp ne i32 %27, 0
  br i1 %28, label %29, label %30

29:                                               ; preds = %23
  store i32 1, ptr %1, align 4
  store i32 1, ptr %13, align 4
  br label %126

30:                                               ; preds = %23
  %31 = load ptr, ptr %2, align 8, !tbaa !16
  %32 = call ptr @N_VNew_Serial(i64 noundef 961, ptr noundef %31)
  store ptr %32, ptr %6, align 8, !tbaa !4
  %33 = load ptr, ptr %6, align 8, !tbaa !4
  %34 = call i32 @check_retval(ptr noundef %33, ptr noundef @.str.6, i32 noundef 0)
  %35 = icmp ne i32 %34, 0
  br i1 %35, label %36, label %37

36:                                               ; preds = %30
  store i32 1, ptr %1, align 4
  store i32 1, ptr %13, align 4
  br label %126

37:                                               ; preds = %30
  %38 = load ptr, ptr %2, align 8, !tbaa !16
  %39 = call ptr @KINCreate(ptr noundef %38)
  store ptr %39, ptr %10, align 8, !tbaa !9
  %40 = load ptr, ptr %10, align 8, !tbaa !9
  %41 = call i32 @check_retval(ptr noundef %40, ptr noundef @.str.7, i32 noundef 0)
  %42 = icmp ne i32 %41, 0
  br i1 %42, label %43, label %44

43:                                               ; preds = %37
  store i32 1, ptr %1, align 4
  store i32 1, ptr %13, align 4
  br label %126

44:                                               ; preds = %37
  %45 = load ptr, ptr %10, align 8, !tbaa !9
  %46 = load ptr, ptr %5, align 8, !tbaa !4
  %47 = call i32 @KINInit(ptr noundef %45, ptr noundef @func, ptr noundef %46)
  store i32 %47, ptr %9, align 4, !tbaa !14
  %48 = call i32 @check_retval(ptr noundef %9, ptr noundef @.str.8, i32 noundef 1)
  %49 = icmp ne i32 %48, 0
  br i1 %49, label %50, label %51

50:                                               ; preds = %44
  store i32 1, ptr %1, align 4
  store i32 1, ptr %13, align 4
  br label %126

51:                                               ; preds = %44
  store double 0x3D719799812DEA11, ptr %3, align 8, !tbaa !18
  %52 = load ptr, ptr %10, align 8, !tbaa !9
  %53 = load double, ptr %3, align 8, !tbaa !18
  %54 = call i32 @KINSetFuncNormTol(ptr noundef %52, double noundef %53)
  store i32 %54, ptr %9, align 4, !tbaa !14
  %55 = call i32 @check_retval(ptr noundef %9, ptr noundef @.str.9, i32 noundef 1)
  %56 = icmp ne i32 %55, 0
  br i1 %56, label %57, label %58

57:                                               ; preds = %51
  store i32 1, ptr %1, align 4
  store i32 1, ptr %13, align 4
  br label %126

58:                                               ; preds = %51
  %59 = load ptr, ptr %2, align 8, !tbaa !16
  %60 = call ptr @SUNBandMatrix(i64 noundef 961, i64 noundef 31, i64 noundef 31, ptr noundef %59)
  store ptr %60, ptr %11, align 8, !tbaa !10
  %61 = load ptr, ptr %11, align 8, !tbaa !10
  %62 = call i32 @check_retval(ptr noundef %61, ptr noundef @.str.10, i32 noundef 0)
  %63 = icmp ne i32 %62, 0
  br i1 %63, label %64, label %65

64:                                               ; preds = %58
  store i32 1, ptr %1, align 4
  store i32 1, ptr %13, align 4
  br label %126

65:                                               ; preds = %58
  %66 = load ptr, ptr %5, align 8, !tbaa !4
  %67 = load ptr, ptr %11, align 8, !tbaa !10
  %68 = load ptr, ptr %2, align 8, !tbaa !16
  %69 = call ptr @SUNLinSol_Band(ptr noundef %66, ptr noundef %67, ptr noundef %68)
  store ptr %69, ptr %12, align 8, !tbaa !12
  %70 = load ptr, ptr %12, align 8, !tbaa !12
  %71 = call i32 @check_retval(ptr noundef %70, ptr noundef @.str.11, i32 noundef 0)
  %72 = icmp ne i32 %71, 0
  br i1 %72, label %73, label %74

73:                                               ; preds = %65
  store i32 1, ptr %1, align 4
  store i32 1, ptr %13, align 4
  br label %126

74:                                               ; preds = %65
  %75 = load ptr, ptr %10, align 8, !tbaa !9
  %76 = load ptr, ptr %12, align 8, !tbaa !12
  %77 = load ptr, ptr %11, align 8, !tbaa !10
  %78 = call i32 @KINSetLinearSolver(ptr noundef %75, ptr noundef %76, ptr noundef %77)
  store i32 %78, ptr %9, align 4, !tbaa !14
  %79 = call i32 @check_retval(ptr noundef %9, ptr noundef @.str.12, i32 noundef 1)
  %80 = icmp ne i32 %79, 0
  br i1 %80, label %81, label %82

81:                                               ; preds = %74
  store i32 1, ptr %1, align 4
  store i32 1, ptr %13, align 4
  br label %126

82:                                               ; preds = %74
  store i32 100, ptr %7, align 4, !tbaa !14
  %83 = load ptr, ptr %10, align 8, !tbaa !9
  %84 = load i32, ptr %7, align 4, !tbaa !14
  %85 = sext i32 %84 to i64
  %86 = call i32 @KINSetMaxSetupCalls(ptr noundef %83, i64 noundef %85)
  store i32 %86, ptr %9, align 4, !tbaa !14
  %87 = call i32 @check_retval(ptr noundef %9, ptr noundef @.str.13, i32 noundef 1)
  %88 = icmp ne i32 %87, 0
  br i1 %88, label %89, label %90

89:                                               ; preds = %82
  store i32 1, ptr %1, align 4
  store i32 1, ptr %13, align 4
  br label %126

90:                                               ; preds = %82
  store i32 1, ptr %8, align 4, !tbaa !14
  %91 = load ptr, ptr %10, align 8, !tbaa !9
  %92 = load i32, ptr %8, align 4, !tbaa !14
  %93 = sext i32 %92 to i64
  %94 = call i32 @KINSetMaxSubSetupCalls(ptr noundef %91, i64 noundef %93)
  store i32 %94, ptr %9, align 4, !tbaa !14
  %95 = call i32 @check_retval(ptr noundef %9, ptr noundef @.str.14, i32 noundef 1)
  %96 = icmp ne i32 %95, 0
  br i1 %96, label %97, label %98

97:                                               ; preds = %90
  store i32 1, ptr %1, align 4
  store i32 1, ptr %13, align 4
  br label %126

98:                                               ; preds = %90
  %99 = load ptr, ptr %5, align 8, !tbaa !4
  call void @N_VConst(double noundef 0.000000e+00, ptr noundef %99)
  %100 = load ptr, ptr %6, align 8, !tbaa !4
  call void @N_VConst(double noundef 1.000000e+00, ptr noundef %100)
  %101 = load ptr, ptr %10, align 8, !tbaa !9
  %102 = load ptr, ptr %5, align 8, !tbaa !4
  %103 = load ptr, ptr %6, align 8, !tbaa !4
  %104 = load ptr, ptr %6, align 8, !tbaa !4
  %105 = call i32 @KINSol(ptr noundef %101, ptr noundef %102, i32 noundef 1, ptr noundef %103, ptr noundef %104)
  store i32 %105, ptr %9, align 4, !tbaa !14
  %106 = call i32 @check_retval(ptr noundef %9, ptr noundef @.str.15, i32 noundef 1)
  %107 = icmp ne i32 %106, 0
  br i1 %107, label %108, label %109

108:                                              ; preds = %98
  store i32 1, ptr %1, align 4
  store i32 1, ptr %13, align 4
  br label %126

109:                                              ; preds = %98
  %110 = load ptr, ptr %10, align 8, !tbaa !9
  %111 = call i32 @KINGetFuncNorm(ptr noundef %110, ptr noundef %4)
  store i32 %111, ptr %9, align 4, !tbaa !14
  %112 = call i32 @check_retval(ptr noundef %9, ptr noundef @.str.16, i32 noundef 1)
  %113 = icmp ne i32 %112, 0
  br i1 %113, label %114, label %115

114:                                              ; preds = %109
  store i32 1, ptr %1, align 4
  store i32 1, ptr %13, align 4
  br label %126

115:                                              ; preds = %109
  %116 = load double, ptr %4, align 8, !tbaa !18
  %117 = call i32 (ptr, ...) @printf(ptr noundef @.str.17, double noundef %116)
  %118 = load ptr, ptr %5, align 8, !tbaa !4
  call void @PrintOutput(ptr noundef %118)
  %119 = load ptr, ptr %10, align 8, !tbaa !9
  call void @PrintFinalStats(ptr noundef %119)
  %120 = load ptr, ptr %5, align 8, !tbaa !4
  call void @N_VDestroy(ptr noundef %120)
  %121 = load ptr, ptr %6, align 8, !tbaa !4
  call void @N_VDestroy(ptr noundef %121)
  call void @KINFree(ptr noundef %10)
  %122 = load ptr, ptr %12, align 8, !tbaa !12
  %123 = call i32 @SUNLinSolFree(ptr noundef %122)
  %124 = load ptr, ptr %11, align 8, !tbaa !10
  call void @SUNMatDestroy(ptr noundef %124)
  %125 = call i32 @SUNContext_Free(ptr noundef %2)
  store i32 0, ptr %1, align 4
  store i32 1, ptr %13, align 4
  br label %126

126:                                              ; preds = %115, %114, %108, %97, %89, %81, %73, %64, %57, %50, %43, %36, %29, %22
  call void @llvm.lifetime.end.p0(i64 8, ptr %12) #5
  call void @llvm.lifetime.end.p0(i64 8, ptr %11) #5
  call void @llvm.lifetime.end.p0(i64 8, ptr %10) #5
  call void @llvm.lifetime.end.p0(i64 4, ptr %9) #5
  call void @llvm.lifetime.end.p0(i64 4, ptr %8) #5
  call void @llvm.lifetime.end.p0(i64 4, ptr %7) #5
  call void @llvm.lifetime.end.p0(i64 8, ptr %6) #5
  call void @llvm.lifetime.end.p0(i64 8, ptr %5) #5
  call void @llvm.lifetime.end.p0(i64 8, ptr %4) #5
  call void @llvm.lifetime.end.p0(i64 8, ptr %3) #5
  call void @llvm.lifetime.end.p0(i64 8, ptr %2) #5
  %127 = load i32, ptr %1, align 4
  ret i32 %127
}