; Function Attrs: nounwind uwtable
define dso_local range(i32 0, 2) i32 @main() local_unnamed_addr #0 {
  %1 = alloca ptr, align 8
  %2 = alloca double, align 8
  %3 = alloca ptr, align 8
  call void @llvm.lifetime.start.p0(i64 8, ptr nonnull %1) #6
  call void @llvm.lifetime.start.p0(i64 8, ptr nonnull %2) #6
  call void @llvm.lifetime.start.p0(i64 8, ptr nonnull %3) #6
  %puts = tail call i32 @puts(ptr nonnull dereferenceable(1) @str)
  %puts22 = tail call i32 @puts(ptr nonnull dereferenceable(1) @str.1)
  %puts23 = tail call i32 @puts(ptr nonnull dereferenceable(1) @str.2)
  %puts24 = tail call i32 @puts(ptr nonnull dereferenceable(1) @str.3)
  %4 = tail call i32 (ptr, ...) @printf(ptr noundef nonnull dereferenceable(1) @.str.4, i64 noundef 31, i64 noundef 31, i64 noundef 961)
  %5 = call i32 @SUNContext_Create(i32 noundef 0, ptr noundef nonnull %1) #6
  %6 = icmp slt i32 %5, 0
  br i1 %6, label %check_retval.exit, label %9

check_retval.exit:                                ; preds = %0
  %7 = load ptr, ptr @stderr, align 8, !tbaa !4
  %8 = call i32 (ptr, ptr, ...) @fprintf(ptr noundef %7, ptr noundef nonnull @.str.38, ptr noundef nonnull @.str.5, i32 noundef %5) #7
  br label %79

9:                                                ; preds = %0
  %10 = load ptr, ptr %1, align 8, !tbaa !9
  %11 = call ptr @N_VNew_Serial(i64 noundef 961, ptr noundef %10) #6
  %12 = icmp eq ptr %11, null
  br i1 %12, label %check_retval.exit38, label %15

check_retval.exit38:                              ; preds = %9
  %13 = load ptr, ptr @stderr, align 8, !tbaa !4
  %14 = call i32 (ptr, ptr, ...) @fprintf(ptr noundef %13, ptr noundef nonnull @.str.37, ptr noundef nonnull @.str.6) #7
  br label %79

15:                                               ; preds = %9
  %16 = load ptr, ptr %1, align 8, !tbaa !9
  %17 = call ptr @N_VNew_Serial(i64 noundef 961, ptr noundef %16) #6
  %18 = icmp eq ptr %17, null
  br i1 %18, label %check_retval.exit40, label %21

check_retval.exit40:                              ; preds = %15
  %19 = load ptr, ptr @stderr, align 8, !tbaa !4
  %20 = call i32 (ptr, ptr, ...) @fprintf(ptr noundef %19, ptr noundef nonnull @.str.37, ptr noundef nonnull @.str.6) #7
  br label %79

21:                                               ; preds = %15
  %22 = load ptr, ptr %1, align 8, !tbaa !9
  %23 = call ptr @KINCreate(ptr noundef %22) #6
  store ptr %23, ptr %3, align 8, !tbaa !11
  %24 = icmp eq ptr %23, null
  br i1 %24, label %check_retval.exit42, label %27

check_retval.exit42:                              ; preds = %21
  %25 = load ptr, ptr @stderr, align 8, !tbaa !4
  %26 = call i32 (ptr, ptr, ...) @fprintf(ptr noundef %25, ptr noundef nonnull @.str.37, ptr noundef nonnull @.str.7) #7
  br label %79

27:                                               ; preds = %21
  %28 = call i32 @KINInit(ptr noundef nonnull %23, ptr noundef nonnull @func, ptr noundef nonnull %11) #6
  %29 = icmp slt i32 %28, 0
  br i1 %29, label %check_retval.exit44, label %32

check_retval.exit44:                              ; preds = %27
  %30 = load ptr, ptr @stderr, align 8, !tbaa !4
  %31 = call i32 (ptr, ptr, ...) @fprintf(ptr noundef %30, ptr noundef nonnull @.str.38, ptr noundef nonnull @.str.8, i32 noundef %28) #7
  br label %79

32:                                               ; preds = %27
  %33 = call i32 @KINSetFuncNormTol(ptr noundef nonnull %23, double noundef 0x3D719799812DEA11) #6
  %34 = icmp slt i32 %33, 0
  br i1 %34, label %check_retval.exit46, label %37

check_retval.exit46:                              ; preds = %32
  %35 = load ptr, ptr @stderr, align 8, !tbaa !4
  %36 = call i32 (ptr, ptr, ...) @fprintf(ptr noundef %35, ptr noundef nonnull @.str.38, ptr noundef nonnull @.str.9, i32 noundef %33) #7
  br label %79

37:                                               ; preds = %32
  %38 = load ptr, ptr %1, align 8, !tbaa !9
  %39 = call ptr @SUNBandMatrix(i64 noundef 961, i64 noundef 31, i64 noundef 31, ptr noundef %38) #6
  %40 = icmp eq ptr %39, null
  br i1 %40, label %check_retval.exit48, label %43

check_retval.exit48:                              ; preds = %37
  %41 = load ptr, ptr @stderr, align 8, !tbaa !4
  %42 = call i32 (ptr, ptr, ...) @fprintf(ptr noundef %41, ptr noundef nonnull @.str.37, ptr noundef nonnull @.str.10) #7
  br label %79

43:                                               ; preds = %37
  %44 = load ptr, ptr %1, align 8, !tbaa !9
  %45 = call ptr @SUNLinSol_Band(ptr noundef nonnull %11, ptr noundef nonnull %39, ptr noundef %44) #6
  %46 = icmp eq ptr %45, null
  br i1 %46, label %check_retval.exit50, label %49

check_retval.exit50:                              ; preds = %43
  %47 = load ptr, ptr @stderr, align 8, !tbaa !4
  %48 = call i32 (ptr, ptr, ...) @fprintf(ptr noundef %47, ptr noundef nonnull @.str.37, ptr noundef nonnull @.str.11) #7
  br label %79

49:                                               ; preds = %43
  %50 = call i32 @KINSetLinearSolver(ptr noundef nonnull %23, ptr noundef nonnull %45, ptr noundef nonnull %39) #6
  %51 = icmp slt i32 %50, 0
  br i1 %51, label %check_retval.exit52, label %54

check_retval.exit52:                              ; preds = %49
  %52 = load ptr, ptr @stderr, align 8, !tbaa !4
  %53 = call i32 (ptr, ptr, ...) @fprintf(ptr noundef %52, ptr noundef nonnull @.str.38, ptr noundef nonnull @.str.12, i32 noundef %50) #7
  br label %79

54:                                               ; preds = %49
  %55 = call i32 @KINSetMaxSetupCalls(ptr noundef nonnull %23, i64 noundef 100) #6
  %56 = icmp slt i32 %55, 0
  br i1 %56, label %check_retval.exit54, label %59

check_retval.exit54:                              ; preds = %54
  %57 = load ptr, ptr @stderr, align 8, !tbaa !4
  %58 = call i32 (ptr, ptr, ...) @fprintf(ptr noundef %57, ptr noundef nonnull @.str.38, ptr noundef nonnull @.str.13, i32 noundef %55) #7
  br label %79

59:                                               ; preds = %54
  %60 = call i32 @KINSetMaxSubSetupCalls(ptr noundef nonnull %23, i64 noundef 1) #6
  %61 = icmp slt i32 %60, 0
  br i1 %61, label %check_retval.exit56, label %64

check_retval.exit56:                              ; preds = %59
  %62 = load ptr, ptr @stderr, align 8, !tbaa !4
  %63 = call i32 (ptr, ptr, ...) @fprintf(ptr noundef %62, ptr noundef nonnull @.str.38, ptr noundef nonnull @.str.14, i32 noundef %60) #7
  br label %79

64:                                               ; preds = %59
  call void @N_VConst(double noundef 0.000000e+00, ptr noundef nonnull %11) #6
  call void @N_VConst(double noundef 1.000000e+00, ptr noundef nonnull %17) #6
  %65 = call i32 @KINSol(ptr noundef nonnull %23, ptr noundef nonnull %11, i32 noundef 1, ptr noundef nonnull %17, ptr noundef nonnull %17) #6
  %66 = icmp slt i32 %65, 0
  br i1 %66, label %check_retval.exit58, label %69

check_retval.exit58:                              ; preds = %64
  %67 = load ptr, ptr @stderr, align 8, !tbaa !4
  %68 = call i32 (ptr, ptr, ...) @fprintf(ptr noundef %67, ptr noundef nonnull @.str.38, ptr noundef nonnull @.str.15, i32 noundef %65) #7
  br label %79

69:                                               ; preds = %64
  %70 = call i32 @KINGetFuncNorm(ptr noundef nonnull %23, ptr noundef nonnull %2) #6
  %71 = icmp slt i32 %70, 0
  br i1 %71, label %check_retval.exit60, label %74

check_retval.exit60:                              ; preds = %69
  %72 = load ptr, ptr @stderr, align 8, !tbaa !4
  %73 = call i32 (ptr, ptr, ...) @fprintf(ptr noundef %72, ptr noundef nonnull @.str.38, ptr noundef nonnull @.str.16, i32 noundef %70) #7
  br label %79

74:                                               ; preds = %69
  %75 = load double, ptr %2, align 8, !tbaa !12
  %76 = call i32 (ptr, ...) @printf(ptr noundef nonnull dereferenceable(1) @.str.17, double noundef %75)
  call fastcc void @PrintOutput(ptr noundef nonnull %11)
  call fastcc void @PrintFinalStats(ptr noundef nonnull %23)
  call void @N_VDestroy(ptr noundef nonnull %11) #6
  call void @N_VDestroy(ptr noundef nonnull %17) #6
  call void @KINFree(ptr noundef nonnull %3) #6
  %77 = call i32 @SUNLinSolFree(ptr noundef nonnull %45) #6
  call void @SUNMatDestroy(ptr noundef nonnull %39) #6
  %78 = call i32 @SUNContext_Free(ptr noundef nonnull %1) #6
  br label %79

79:                                               ; preds = %check_retval.exit60, %check_retval.exit58, %check_retval.exit56, %check_retval.exit54, %check_retval.exit52, %check_retval.exit50, %check_retval.exit48, %check_retval.exit46, %check_retval.exit44, %check_retval.exit42, %check_retval.exit40, %check_retval.exit38, %check_retval.exit, %74
  %.0 = phi i32 [ 0, %74 ], [ 1, %check_retval.exit ], [ 1, %check_retval.exit38 ], [ 1, %check_retval.exit40 ], [ 1, %check_retval.exit42 ], [ 1, %check_retval.exit44 ], [ 1, %check_retval.exit46 ], [ 1, %check_retval.exit48 ], [ 1, %check_retval.exit50 ], [ 1, %check_retval.exit52 ], [ 1, %check_retval.exit54 ], [ 1, %check_retval.exit56 ], [ 1, %check_retval.exit58 ], [ 1, %check_retval.exit60 ]
  call void @llvm.lifetime.end.p0(i64 8, ptr nonnull %3) #6
  call void @llvm.lifetime.end.p0(i64 8, ptr nonnull %2) #6
  call void @llvm.lifetime.end.p0(i64 8, ptr nonnull %1) #6
  ret i32 %.0
}